; ModuleID = '61/288.c'
source_filename = "61/288.c"
target datalayout = "e-m:e-p270:32:32-p271:32:32-p272:64:64-i64:64-f80:128-n8:16:32:64-S128"
target triple = "x86_64-pc-linux-gnu"

@.str = private unnamed_addr constant [3 x i8] c"%d\00", align 1
@.str.1 = private unnamed_addr constant [4 x i8] c"%d\0A\00", align 1

; Function Attrs: noinline nounwind uwtable
define dso_local i32 @f(i32 %0) #0 {
  %2 = alloca i32, align 4
  %3 = alloca i32, align 4
  store i32 %0, i32* %3, align 4
  %4 = load i32, i32* %3, align 4
  %5 = icmp eq i32 %4, 1
  br i1 %5, label %9, label %6

6:                                                ; preds = %1
  %7 = load i32, i32* %3, align 4
  %8 = icmp eq i32 %7, 2
  br i1 %8, label %9, label %10

9:                                                ; preds = %6, %1
  store i32 1, i32* %2, align 4
  br label %18

10:                                               ; preds = %6
  %11 = load i32, i32* %3, align 4
  %12 = sub nsw i32 %11, 2
  %13 = call i32 @f(i32 %12)
  %14 = load i32, i32* %3, align 4
  %15 = sub nsw i32 %14, 1
  %16 = call i32 @f(i32 %15)
  %17 = add nsw i32 %13, %16
  store i32 %17, i32* %2, align 4
  br label %18

18:                                               ; preds = %10, %9
  %19 = load i32, i32* %2, align 4
  ret i32 %19
}

; Function Attrs: noinline nounwind uwtable
define dso_local i32 @main() #0 {
  %1 = alloca i32, align 4
  %2 = alloca i32, align 4
  %3 = alloca i32, align 4
  %4 = alloca [100 x i32], align 16
  %5 = alloca i32, align 4
  store i32 0, i32* %1, align 4
  %6 = call i32 (i8*, ...) @__isoc99_scanf(i8* getelementptr inbounds ([3 x i8], [3 x i8]* @.str, i64 0, i64 0), i32* %2)
  store i32 0, i32* %3, align 4
  br label %7

7:                                                ; preds = %22, %0
  %8 = load i32, i32* %3, align 4
  %9 = load i32, i32* %2, align 4
  %10 = icmp slt i32 %8, %9
  br i1 %10, label %11, label %25

11:                                               ; preds = %7
  %12 = load i32, i32* %3, align 4
  %13 = sext i32 %12 to i64
  %14 = getelementptr inbounds [100 x i32], [100 x i32]* %4, i64 0, i64 %13
  %15 = call i32 (i8*, ...) @__isoc99_scanf(i8* getelementptr inbounds ([3 x i8], [3 x i8]* @.str, i64 0, i64 0), i32* %14)
  %16 = load i32, i32* %3, align 4
  %17 = sext i32 %16 to i64
  %18 = getelementptr inbounds [100 x i32], [100 x i32]* %4, i64 0, i64 %17
  %19 = load i32, i32* %18, align 4
  %20 = call i32 @f(i32 %19)
  %21 = call i32 (i8*, ...) @printf(i8* getelementptr inbounds ([4 x i8], [4 x i8]* @.str.1, i64 0, i64 0), i32 %20)
  br label %22

22:                                               ; preds = %11
  %23 = load i32, i32* %3, align 4
  %24 = add nsw i32 %23, 1
  store i32 %24, i32* %3, align 4
  br label %7

25:                                               ; preds = %7
  %26 = call i32 @getchar()
  %27 = call i32 @getchar()
  %28 = call i32 @getchar()
  %29 = load i32, i32* %1, align 4
  ret i32 %29
}

declare dso_local i32 @__isoc99_scanf(i8*, ...) #1

declare dso_local i32 @printf(i8*, ...) #1

declare dso_local i32 @getchar() #1


!llvm.module.flags = !{!0}
!llvm.ident = !{!1}

!0 = !{i32 1, !"wchar_size", i32 4}
!1 = !{!"clang version 10.0.0-4ubuntu1 "}
